; ModuleID = '10/295.c'
source_filename = "10/295.c"
target datalayout = "e-m:e-p270:32:32-p271:32:32-p272:64:64-i64:64-f80:128-n8:16:32:64-S128"
target triple = "x86_64-pc-linux-gnu"

@.str = private unnamed_addr constant [3 x i8] c"%d\00", align 1
@.str.1 = private unnamed_addr constant [4 x i8] c"%d\0A\00", align 1

; Function Attrs: noinline nounwind uwtable
define dso_local i32 @main() #0 {
  %1 = alloca i32, align 4
  %2 = alloca i32, align 4
  %3 = alloca [25 x i32], align 16
  %4 = alloca [25 x i32], align 16
  %5 = alloca i32, align 4
  %6 = alloca i32, align 4
  %7 = alloca i32, align 4
  %8 = alloca i32, align 4
  %9 = alloca i32, align 4
  store i32 0, i32* %1, align 4
  %10 = call i32 (i8*, ...) @__isoc99_scanf(i8* getelementptr inbounds ([3 x i8], [3 x i8]* @.str, i64 0, i64 0), i32* %2)
  store i32 0, i32* %6, align 4
  br label %11

11:                                               ; preds = %23, %0
  %12 = load i32, i32* %6, align 4
  %13 = load i32, i32* %2, align 4
  %14 = icmp slt i32 %12, %13
  br i1 %14, label %15, label %26

15:                                               ; preds = %11
  %16 = load i32, i32* %6, align 4
  %17 = sext i32 %16 to i64
  %18 = getelementptr inbounds [25 x i32], [25 x i32]* %4, i64 0, i64 %17
  store i32 1, i32* %18, align 4
  %19 = load i32, i32* %6, align 4
  %20 = sext i32 %19 to i64
  %21 = getelementptr inbounds [25 x i32], [25 x i32]* %3, i64 0, i64 %20
  %22 = call i32 (i8*, ...) @__isoc99_scanf(i8* getelementptr inbounds ([3 x i8], [3 x i8]* @.str, i64 0, i64 0), i32* %21)
  br label %23

23:                                               ; preds = %15
  %24 = load i32, i32* %6, align 4
  %25 = add nsw i32 %24, 1
  store i32 %25, i32* %6, align 4
  br label %11

26:                                               ; preds = %11
  %27 = load i32, i32* %2, align 4
  %28 = sub nsw i32 %27, 1
  store i32 %28, i32* %7, align 4
  br label %29

29:                                               ; preds = %77, %26
  %30 = load i32, i32* %7, align 4
  %31 = icmp sge i32 %30, 0
  br i1 %31, label %32, label %80

32:                                               ; preds = %29
  %33 = load i32, i32* %7, align 4
  store i32 %33, i32* %8, align 4
  br label %34

34:                                               ; preds = %73, %32
  %35 = load i32, i32* %8, align 4
  %36 = load i32, i32* %2, align 4
  %37 = icmp slt i32 %35, %36
  br i1 %37, label %38, label %76

38:                                               ; preds = %34
  %39 = load i32, i32* %7, align 4
  %40 = load i32, i32* %8, align 4
  %41 = icmp ne i32 %39, %40
  br i1 %41, label %42, label %72

42:                                               ; preds = %38
  %43 = load i32, i32* %7, align 4
  %44 = sext i32 %43 to i64
  %45 = getelementptr inbounds [25 x i32], [25 x i32]* %3, i64 0, i64 %44
  %46 = load i32, i32* %45, align 4
  %47 = load i32, i32* %8, align 4
  %48 = sext i32 %47 to i64
  %49 = getelementptr inbounds [25 x i32], [25 x i32]* %3, i64 0, i64 %48
  %50 = load i32, i32* %49, align 4
  %51 = icmp sge i32 %46, %50
  br i1 %51, label %52, label %72

52:                                               ; preds = %42
  %53 = load i32, i32* %7, align 4
  %54 = sext i32 %53 to i64
  %55 = getelementptr inbounds [25 x i32], [25 x i32]* %4, i64 0, i64 %54
  %56 = load i32, i32* %55, align 4
  %57 = load i32, i32* %8, align 4
  %58 = sext i32 %57 to i64
  %59 = getelementptr inbounds [25 x i32], [25 x i32]* %4, i64 0, i64 %58
  %60 = load i32, i32* %59, align 4
  %61 = add nsw i32 1, %60
  %62 = icmp slt i32 %56, %61
  br i1 %62, label %63, label %72

63:                                               ; preds = %52
  %64 = load i32, i32* %8, align 4
  %65 = sext i32 %64 to i64
  %66 = getelementptr inbounds [25 x i32], [25 x i32]* %4, i64 0, i64 %65
  %67 = load i32, i32* %66, align 4
  %68 = add nsw i32 %67, 1
  %69 = load i32, i32* %7, align 4
  %70 = sext i32 %69 to i64
  %71 = getelementptr inbounds [25 x i32], [25 x i32]* %4, i64 0, i64 %70
  store i32 %68, i32* %71, align 4
  br label %72

72:                                               ; preds = %63, %52, %42, %38
  br label %73

73:                                               ; preds = %72
  %74 = load i32, i32* %8, align 4
  %75 = add nsw i32 %74, 1
  store i32 %75, i32* %8, align 4
  br label %34

76:                                               ; preds = %34
  br label %77

77:                                               ; preds = %76
  %78 = load i32, i32* %7, align 4
  %79 = add nsw i32 %78, -1
  store i32 %79, i32* %7, align 4
  br label %29

80:                                               ; preds = %29
  %81 = getelementptr inbounds [25 x i32], [25 x i32]* %4, i64 0, i64 0
  %82 = load i32, i32* %81, align 16
  store i32 %82, i32* %5, align 4
  store i32 0, i32* %9, align 4
  br label %83

83:                                               ; preds = %100, %80
  %84 = load i32, i32* %9, align 4
  %85 = load i32, i32* %2, align 4
  %86 = icmp slt i32 %84, %85
  br i1 %86, label %87, label %103

87:                                               ; preds = %83
  %88 = load i32, i32* %9, align 4
  %89 = sext i32 %88 to i64
  %90 = getelementptr inbounds [25 x i32], [25 x i32]* %4, i64 0, i64 %89
  %91 = load i32, i32* %90, align 4
  %92 = load i32, i32* %5, align 4
  %93 = icmp sgt i32 %91, %92
  br i1 %93, label %94, label %99

94:                                               ; preds = %87
  %95 = load i32, i32* %9, align 4
  %96 = sext i32 %95 to i64
  %97 = getelementptr inbounds [25 x i32], [25 x i32]* %4, i64 0, i64 %96
  %98 = load i32, i32* %97, align 4
  store i32 %98, i32* %5, align 4
  br label %99

99:                                               ; preds = %94, %87
  br label %100

100:                                              ; preds = %99
  %101 = load i32, i32* %9, align 4
  %102 = add nsw i32 %101, 1
  store i32 %102, i32* %9, align 4
  br label %83

103:                                              ; preds = %83
  %104 = load i32, i32* %5, align 4
  %105 = call i32 (i8*, ...) @printf(i8* getelementptr inbounds ([4 x i8], [4 x i8]* @.str.1, i64 0, i64 0), i32 %104)
  %106 = load i32, i32* %1, align 4
  ret i32 %106
}

declare dso_local i32 @__isoc99_scanf(i8*, ...) #1

declare dso_local i32 @printf(i8*, ...) #1


!llvm.module.flags = !{!0}
!llvm.ident = !{!1}

!0 = !{i32 1, !"wchar_size", i32 4}
!1 = !{!"clang version 10.0.0-4ubuntu1 "}
